; Function Attrs: nounwind uwtable
define ptr @l_Lean_Elab_Tactic_Conv_evalSimp(ptr noundef %0, ptr noundef %1, ptr noundef %2, ptr noundef %3, ptr noundef %4, ptr noundef %5, ptr noundef %6, ptr noundef %7, ptr noundef %8, ptr noundef %9) #0 {
  tail call void @lean_inc_heartbeat() #5
  %11 = tail call noalias ptr @mi_malloc_small(i64 noundef 32) #5
  %12 = icmp eq ptr %11, null
  br i1 %12, label %13, label %lean_alloc_closure.exit

13:                                               ; preds = %10
  tail call void @lean_internal_panic_out_of_memory() #6
  unreachable

lean_alloc_closure.exit:                          ; preds = %10
  %14 = getelementptr inbounds nuw i8, ptr %11, i64 4
  store i32 1, ptr %11, align 4, !tbaa !8
  store i32 -184549344, ptr %14, align 4
  %15 = getelementptr inbounds nuw i8, ptr %11, i64 8
  store ptr @l_Lean_Elab_Tactic_Conv_evalSimp___lambda__2, ptr %15, align 8, !tbaa !4
  %16 = getelementptr inbounds nuw i8, ptr %11, i64 16
  store i16 10, ptr %16, align 8, !tbaa !14
  %17 = getelementptr inbounds nuw i8, ptr %11, i64 18
  store i16 1, ptr %17, align 2, !tbaa !14
  %18 = getelementptr inbounds nuw i8, ptr %11, i64 24
  store ptr %0, ptr %18, align 8, !tbaa !4
  %19 = tail call ptr @l_Lean_Elab_Tactic_withMainContext___rarg(ptr noundef nonnull %11, ptr noundef %1, ptr noundef %2, ptr noundef %3, ptr noundef %4, ptr noundef %5, ptr noundef %6, ptr noundef %7, ptr noundef %8, ptr noundef %9) #5
  ret ptr %19
}